; Function Attrs: mustprogress noreturn uwtable
define hidden void @_ZNK19OpenColorIO_v2_5dev15ReferenceOpData10getCacheIDB5cxx11Ev(ptr dead_on_unwind noalias readnone sret(%"class.std::__cxx11::basic_string") align 8 captures(none) %0, ptr nonnull readnone align 8 captures(none) %1) unnamed_addr #5 align 2 personality ptr @__gxx_personality_v0 {
  %3 = tail call ptr @__cxa_allocate_exception(i64 16) #11
  invoke void @_ZN19OpenColorIO_v2_5dev9ExceptionC1EPKc(ptr noundef nonnull align 8 dereferenceable(16) %3, ptr noundef nonnull @.str)
          to label %4 unwind label %5

4:                                                ; preds = %2
  tail call void @__cxa_throw(ptr nonnull %3, ptr nonnull @_ZTIN19OpenColorIO_v2_5dev9ExceptionE, ptr nonnull @_ZN19OpenColorIO_v2_5dev9ExceptionD1Ev) #12
  unreachable

5:                                                ; preds = %2
  %6 = landingpad { ptr, i32 }
          cleanup
  tail call void @__cxa_free_exception(ptr nonnull %3) #11
  resume { ptr, i32 } %6
}